target datalayout = "e-m:e-p270:32:32-p271:32:32-p272:64:64-i64:64-i128:128-f80:128-n8:16:32:64-S128"
target triple = "x86_64-pc-linux-gnu"

; Function Attrs: nounwind uwtable
define internal void @lumRangeFromJpeg_c(ptr noundef %0, i32 noundef %1, i32 noundef %2, i64 noundef %3) #0 {
  %5 = alloca ptr, align 8
  %6 = alloca i32, align 4
  %7 = alloca i32, align 4
  %8 = alloca i64, align 8
  %9 = alloca i16, align 2
  %10 = alloca i32, align 4
  %11 = alloca i32, align 4
  store ptr %0, ptr %5, align 8, !tbaa !104
  store i32 %1, ptr %6, align 4, !tbaa !14
  store i32 %2, ptr %7, align 4, !tbaa !14
  store i64 %3, ptr %8, align 8, !tbaa !105
  call void @llvm.lifetime.start.p0(i64 2, ptr %9) #11
  %12 = load i32, ptr %7, align 4, !tbaa !14
  %13 = trunc i32 %12 to i16
  store i16 %13, ptr %9, align 2, !tbaa !102
  call void @llvm.lifetime.start.p0(i64 4, ptr %10) #11
  %14 = load i64, ptr %8, align 8, !tbaa !105
  %15 = trunc i64 %14 to i32
  store i32 %15, ptr %10, align 4, !tbaa !14
  call void @llvm.lifetime.start.p0(i64 4, ptr %11) #11
  store i32 0, ptr %11, align 4, !tbaa !14
  br label %16

16:                                               ; preds = %38, %4
  %17 = load i32, ptr %11, align 4, !tbaa !14
  %18 = load i32, ptr %6, align 4, !tbaa !14
  %19 = icmp slt i32 %17, %18
  br i1 %19, label %20, label %41

20:                                               ; preds = %16
  %21 = load ptr, ptr %5, align 8, !tbaa !104
  %22 = load i32, ptr %11, align 4, !tbaa !14
  %23 = sext i32 %22 to i64
  %24 = getelementptr inbounds i16, ptr %21, i64 %23
  %25 = load i16, ptr %24, align 2, !tbaa !102
  %26 = sext i16 %25 to i32
  %27 = load i16, ptr %9, align 2, !tbaa !102
  %28 = zext i16 %27 to i32
  %29 = mul nsw i32 %26, %28
  %30 = load i32, ptr %10, align 4, !tbaa !14
  %31 = add nsw i32 %29, %30
  %32 = ashr i32 %31, 14
  %33 = trunc i32 %32 to i16
  %34 = load ptr, ptr %5, align 8, !tbaa !104
  %35 = load i32, ptr %11, align 4, !tbaa !14
  %36 = sext i32 %35 to i64
  %37 = getelementptr inbounds i16, ptr %34, i64 %36
  store i16 %33, ptr %37, align 2, !tbaa !102
  br label %38

38:                                               ; preds = %20
  %39 = load i32, ptr %11, align 4, !tbaa !14
  %40 = add nsw i32 %39, 1
  store i32 %40, ptr %11, align 4, !tbaa !14
  br label %16, !llvm.loop !106

41:                                               ; preds = %16
  call void @llvm.lifetime.end.p0(i64 4, ptr %11) #11
  call void @llvm.lifetime.end.p0(i64 4, ptr %10) #11
  call void @llvm.lifetime.end.p0(i64 2, ptr %9) #11
  ret void
}