; Function Attrs: nofree norecurse nosync nounwind memory(argmem: readwrite) uwtable
define internal void @lumRangeFromJpeg_c(ptr noundef captures(none) %0, i32 noundef %1, i32 noundef %2, i64 noundef %3) #6 {
  %5 = trunc i64 %3 to i32
  %6 = icmp sgt i32 %1, 0
  br i1 %6, label %.lr.ph, label %._crit_edge

.lr.ph:                                           ; preds = %4
  %7 = and i32 %2, 65535
  %wide.trip.count = zext nneg i32 %1 to i64
  br label %8

8:                                                ; preds = %.lr.ph, %8
  %indvars.iv = phi i64 [ 0, %.lr.ph ], [ %indvars.iv.next, %8 ]
  %9 = getelementptr inbounds nuw i16, ptr %0, i64 %indvars.iv
  %10 = load i16, ptr %9, align 2, !tbaa !94
  %11 = sext i16 %10 to i32
  %12 = mul nsw i32 %7, %11
  %13 = add nsw i32 %12, %5
  %14 = lshr i32 %13, 14
  %15 = trunc i32 %14 to i16
  store i16 %15, ptr %9, align 2, !tbaa !94
  %indvars.iv.next = add nuw nsw i64 %indvars.iv, 1
  %exitcond.not = icmp eq i64 %indvars.iv.next, %wide.trip.count
  br i1 %exitcond.not, label %._crit_edge, label %8, !llvm.loop !96

._crit_edge:                                      ; preds = %8, %4
  ret void
}